target datalayout = "e-m:e-p270:32:32-p271:32:32-p272:64:64-i64:64-i128:128-f80:128-n8:16:32:64-S128"
target triple = "x86_64-pc-linux-gnu"

; Function Attrs: nounwind uwtable
define internal zeroext i1 @MultiXactOffsetPrecedes(i32 noundef %0, i32 noundef %1) #0 {
  %3 = alloca i32, align 4
  %4 = alloca i32, align 4
  %5 = alloca i32, align 4
  store i32 %0, ptr %3, align 4
  store i32 %1, ptr %4, align 4
  call void @llvm.lifetime.start.p0(i64 4, ptr %5) #9
  %6 = load i32, ptr %3, align 4
  %7 = load i32, ptr %4, align 4
  %8 = sub i32 %6, %7
  store i32 %8, ptr %5, align 4
  %9 = load i32, ptr %5, align 4
  %10 = icmp slt i32 %9, 0
  call void @llvm.lifetime.end.p0(i64 4, ptr %5) #9
  ret i1 %10
}

; Function Attrs: nounwind uwtable
define internal zeroext i1 @MultiXactMemberPagePrecedes(i64 noundef %0, i64 noundef %1) #0 {
  %3 = alloca i64, align 8
  %4 = alloca i64, align 8
  %5 = alloca i32, align 4
  %6 = alloca i32, align 4
  store i64 %0, ptr %3, align 8
  store i64 %1, ptr %4, align 8
  call void @llvm.lifetime.start.p0(i64 4, ptr %5) #9
  call void @llvm.lifetime.start.p0(i64 4, ptr %6) #9
  %7 = load i64, ptr %3, align 8
  %8 = trunc i64 %7 to i32
  %9 = zext i32 %8 to i64
  %10 = mul i64 %9, 1636
  %11 = trunc i64 %10 to i32
  store i32 %11, ptr %5, align 4
  %12 = load i64, ptr %4, align 8
  %13 = trunc i64 %12 to i32
  %14 = zext i32 %13 to i64
  %15 = mul i64 %14, 1636
  %16 = trunc i64 %15 to i32
  store i32 %16, ptr %6, align 4
  %17 = load i32, ptr %5, align 4
  %18 = load i32, ptr %6, align 4
  %19 = call zeroext i1 @MultiXactOffsetPrecedes(i32 noundef %17, i32 noundef %18)
  br i1 %19, label %20, label %28

20:                                               ; preds = %2
  %21 = load i32, ptr %5, align 4
  %22 = load i32, ptr %6, align 4
  %23 = zext i32 %22 to i64
  %24 = add i64 %23, 1636
  %25 = sub i64 %24, 1
  %26 = trunc i64 %25 to i32
  %27 = call zeroext i1 @MultiXactOffsetPrecedes(i32 noundef %21, i32 noundef %26)
  br label %28

28:                                               ; preds = %20, %2
  %29 = phi i1 [ false, %2 ], [ %27, %20 ]
  call void @llvm.lifetime.end.p0(i64 4, ptr %6) #9
  call void @llvm.lifetime.end.p0(i64 4, ptr %5) #9
  ret i1 %29
}