; Function Attrs: mustprogress nofree norecurse nosync nounwind willreturn memory(none) uwtable
define internal zeroext i1 @MultiXactMemberPagePrecedes(i64 noundef %0, i64 noundef %1) #4 {
  %3 = trunc i64 %0 to i32
  %4 = mul i32 %3, 1636
  %5 = trunc i64 %1 to i32
  %6 = mul i32 %5, 1636
  %7 = sub i32 %4, %6
  %.neg6 = add i32 %4, -1635
  %8 = sub i32 %.neg6, %6
  %9 = and i32 %7, %8
  %10 = icmp slt i32 %9, 0
  ret i1 %10
}